target datalayout = "e-m:e-p270:32:32-p271:32:32-p272:64:64-i64:64-i128:128-f80:128-n8:16:32:64-S128"
target triple = "x86_64-unknown-linux-gnu"

%class.rational = type { %class.mpq }
%class.mpq = type { %class.mpz, %class.mpz }
%class.mpz = type { i32, i8, ptr }
%"struct.nla::common" = type { ptr, %"class.nla::nex_creator" }
%"class.nla::nex_creator" = type { %class.ptr_vector, %"class.std::unordered_map", %"class.std::unordered_map.2", %class.svector, %"class.nla::nex_creator::mul_factory" }
%class.ptr_vector = type { %class.vector }
%class.vector = type { ptr }
%"class.std::unordered_map" = type { %"class.std::_Hashtable" }
%"class.std::_Hashtable" = type { ptr, i64, %"struct.std::__detail::_Hash_node_base", i64, %"struct.std::__detail::_Prime_rehash_policy", ptr }
%"struct.std::__detail::_Hash_node_base" = type { ptr }
%"struct.std::__detail::_Prime_rehash_policy" = type { float, i64 }
%"class.std::unordered_map.2" = type { %"class.std::_Hashtable.3" }
%"class.std::_Hashtable.3" = type { ptr, i64, %"struct.std::__detail::_Hash_node_base", i64, %"struct.std::__detail::_Prime_rehash_policy", ptr }
%class.svector = type { %class.vector.16 }
%class.vector.16 = type { ptr }
%"class.nla::nex_creator::mul_factory" = type { ptr, %class.rational, %class.vector.17 }
%class.vector.17 = type { ptr }
%"class.nla::new_lemma" = type { ptr, ptr }
%"class.nla::factor" = type <{ i32, i32, i8, [3 x i8] }>
%"class.nla::factorization" = type { %class.svector.100, ptr }
%class.svector.100 = type { %class.vector.101 }
%class.vector.101 = type { ptr }

@.str.8 = private unnamed_addr constant [25 x i8] c"x = 0 or y = 0 -> xy = 0\00", align 1

; Function Attrs: mustprogress nounwind uwtable
define linkonce_odr hidden noundef i32 @_ZNK6vectorIN3nla6factorELb0EjE4sizeEv(ptr noundef nonnull align 8 dereferenceable(8) %this) #4 comdat align 2 {
entry:
  %retval = alloca i32, align 4
  %this.addr = alloca ptr, align 8
  store ptr %this, ptr %this.addr, align 8
  %this1 = load ptr, ptr %this.addr, align 8
  %m_data = getelementptr inbounds %class.vector.101, ptr %this1, i32 0, i32 0
  %0 = load ptr, ptr %m_data, align 8
  %cmp = icmp eq ptr %0, null
  br i1 %cmp, label %if.then, label %if.end

if.then:                                          ; preds = %entry
  store i32 0, ptr %retval, align 4
  br label %return

if.end:                                           ; preds = %entry
  %m_data2 = getelementptr inbounds %class.vector.101, ptr %this1, i32 0, i32 0
  %1 = load ptr, ptr %m_data2, align 8
  %arrayidx = getelementptr inbounds i32, ptr %1, i64 -1
  %2 = load i32, ptr %arrayidx, align 4
  store i32 %2, ptr %retval, align 4
  br label %return

return:                                           ; preds = %if.end, %if.then
  %3 = load i32, ptr %retval, align 4
  ret i32 %3
}

; Function Attrs: mustprogress uwtable
define linkonce_odr hidden noundef ptr @_ZNK6vectorIN3nla6factorELb0EjE3endEv(ptr noundef nonnull align 8 dereferenceable(8) %this) #5 comdat align 2 {
entry:
  %this.addr = alloca ptr, align 8
  store ptr %this, ptr %this.addr, align 8
  %this1 = load ptr, ptr %this.addr, align 8
  %m_data = getelementptr inbounds %class.vector.101, ptr %this1, i32 0, i32 0
  %0 = load ptr, ptr %m_data, align 8
  %call = call noundef i32 @_ZNK6vectorIN3nla6factorELb0EjE4sizeEv(ptr noundef nonnull align 8 dereferenceable(8) %this1)
  %idx.ext = zext i32 %call to i64
  %add.ptr = getelementptr inbounds %"class.nla::factor", ptr %0, i64 %idx.ext
  ret ptr %add.ptr
}

; Function Attrs: mustprogress nounwind uwtable
define linkonce_odr hidden noundef ptr @_ZNK6vectorIN3nla6factorELb0EjE5beginEv(ptr noundef nonnull align 8 dereferenceable(8) %this) #4 comdat align 2 {
entry:
  %this.addr = alloca ptr, align 8
  store ptr %this, ptr %this.addr, align 8
  %this1 = load ptr, ptr %this.addr, align 8
  %m_data = getelementptr inbounds %class.vector.101, ptr %this1, i32 0, i32 0
  %0 = load ptr, ptr %m_data, align 8
  ret ptr %0
}

; Function Attrs: mustprogress uwtable
define linkonce_odr hidden noundef ptr @_ZNK3nla13factorization3endEv(ptr noundef nonnull align 8 dereferenceable(16) %this) #5 comdat align 2 {
entry:
  %this.addr = alloca ptr, align 8
  store ptr %this, ptr %this.addr, align 8
  %this1 = load ptr, ptr %this.addr, align 8
  %m_factors = getelementptr inbounds %"class.nla::factorization", ptr %this1, i32 0, i32 0
  %call = call noundef ptr @_ZNK6vectorIN3nla6factorELb0EjE3endEv(ptr noundef nonnull align 8 dereferenceable(8) %m_factors)
  ret ptr %call
}

; Function Attrs: mustprogress uwtable
define linkonce_odr hidden noundef ptr @_ZNK3nla13factorization5beginEv(ptr noundef nonnull align 8 dereferenceable(16) %this) #5 comdat align 2 {
entry:
  %this.addr = alloca ptr, align 8
  store ptr %this, ptr %this.addr, align 8
  %this1 = load ptr, ptr %this.addr, align 8
  %m_factors = getelementptr inbounds %"class.nla::factorization", ptr %this1, i32 0, i32 0
  %call = call noundef ptr @_ZNK6vectorIN3nla6factorELb0EjE5beginEv(ptr noundef nonnull align 8 dereferenceable(8) %m_factors)
  ret ptr %call
}

; Function Attrs: mustprogress nounwind uwtable
define linkonce_odr hidden noundef nonnull align 8 dereferenceable(4720) ptr @_ZN3nla6common1cEv(ptr noundef nonnull align 8 dereferenceable(184) %this) #4 comdat align 2 {
entry:
  %this.addr = alloca ptr, align 8
  store ptr %this, ptr %this.addr, align 8
  %this1 = load ptr, ptr %this.addr, align 8
  %m_core = getelementptr inbounds %"struct.nla::common", ptr %this1, i32 0, i32 0
  %0 = load ptr, ptr %m_core, align 8
  ret ptr %0
}

; Function Attrs: mustprogress uwtable
define hidden noundef zeroext i1 @_ZN3nla6basics36basic_lemma_for_mon_non_zero_derivedERKNS_5monicERKNS_13factorizationE(ptr noundef nonnull align 8 dereferenceable(184) %this, ptr noundef nonnull align 8 dereferenceable(34) %rm, ptr noundef nonnull align 8 dereferenceable(16) %f) #5 align 2 personality ptr @__gxx_personality_v0 {
entry:
  %retval = alloca i1, align 1
  %this.addr = alloca ptr, align 8
  %rm.addr = alloca ptr, align 8
  %f.addr = alloca ptr, align 8
  %__range1 = alloca ptr, align 8
  %__begin1 = alloca ptr, align 8
  %__end1 = alloca ptr, align 8
  %fc = alloca %"class.nla::factor", align 4
  %lemma = alloca %"class.nla::new_lemma", align 8
  %exn.slot = alloca ptr, align 8
  %ehselector.slot = alloca i32, align 4
  store ptr %this, ptr %this.addr, align 8
  store ptr %rm, ptr %rm.addr, align 8
  store ptr %f, ptr %f.addr, align 8
  %this1 = load ptr, ptr %this.addr, align 8
  %call = call noundef nonnull align 8 dereferenceable(4720) ptr @_ZN3nla6common1cEv(ptr noundef nonnull align 8 dereferenceable(184) %this1)
  %0 = load ptr, ptr %rm.addr, align 8
  %call2 = call noundef i32 @_ZNK3nla6common3varINS_5monicEEEjRKT_(ptr noundef nonnull align 8 dereferenceable(184) %this1, ptr noundef nonnull align 8 dereferenceable(34) %0)
  %call3 = call noundef zeroext i1 @_ZNK3nla4core26var_is_separated_from_zeroEj(ptr noundef nonnull align 8 dereferenceable(4720) %call, i32 noundef %call2)
  br i1 %call3, label %if.end, label %if.then

if.then:                                          ; preds = %entry
  store i1 false, ptr %retval, align 1
  br label %return

if.end:                                           ; preds = %entry
  %1 = load ptr, ptr %f.addr, align 8
  store ptr %1, ptr %__range1, align 8
  %2 = load ptr, ptr %__range1, align 8
  %call4 = call noundef ptr @_ZNK3nla13factorization5beginEv(ptr noundef nonnull align 8 dereferenceable(16) %2)
  store ptr %call4, ptr %__begin1, align 8
  %3 = load ptr, ptr %__range1, align 8
  %call5 = call noundef ptr @_ZNK3nla13factorization3endEv(ptr noundef nonnull align 8 dereferenceable(16) %3)
  store ptr %call5, ptr %__end1, align 8
  br label %for.cond

for.cond:                                         ; preds = %for.inc, %if.end
  %4 = load ptr, ptr %__begin1, align 8
  %5 = load ptr, ptr %__end1, align 8
  %cmp = icmp ne ptr %4, %5
  br i1 %cmp, label %for.body, label %for.end

for.body:                                         ; preds = %for.cond
  %6 = load ptr, ptr %__begin1, align 8
  call void @llvm.memcpy.p0.p0.i64(ptr align 4 %fc, ptr align 4 %6, i64 12, i1 false)
  %call6 = call noundef nonnull align 8 dereferenceable(4720) ptr @_ZN3nla6common1cEv(ptr noundef nonnull align 8 dereferenceable(184) %this1)
  %call7 = call noundef i32 @_ZNK3nla6common3varINS_6factorEEEjRKT_(ptr noundef nonnull align 8 dereferenceable(184) %this1, ptr noundef nonnull align 4 dereferenceable(9) %fc)
  %call8 = call noundef zeroext i1 @_ZNK3nla4core20var_is_fixed_to_zeroEj(ptr noundef nonnull align 8 dereferenceable(4720) %call6, i32 noundef %call7)
  br i1 %call8, label %if.end10, label %if.then9

if.then9:                                         ; preds = %for.body
  br label %for.inc

if.end10:                                         ; preds = %for.body
  %call11 = call noundef nonnull align 8 dereferenceable(4720) ptr @_ZN3nla6common1cEv(ptr noundef nonnull align 8 dereferenceable(184) %this1)
  call void @_ZN3nla9new_lemmaC1ERNS_4coreEPKc(ptr noundef nonnull align 8 dereferenceable(16) %lemma, ptr noundef nonnull align 8 dereferenceable(4720) %call11, ptr noundef @.str.8)
  %call12 = invoke noundef i32 @_ZNK3nla6common3varINS_6factorEEEjRKT_(ptr noundef nonnull align 8 dereferenceable(184) %this1, ptr noundef nonnull align 4 dereferenceable(9) %fc)
          to label %invoke.cont unwind label %lpad

invoke.cont:                                      ; preds = %if.end10
  %call14 = invoke noundef nonnull align 8 dereferenceable(16) ptr @_ZN3nla9new_lemma13explain_fixedEj(ptr noundef nonnull align 8 dereferenceable(16) %lemma, i32 noundef %call12)
          to label %invoke.cont13 unwind label %lpad

invoke.cont13:                                    ; preds = %invoke.cont
  %7 = load ptr, ptr %rm.addr, align 8
  %call16 = invoke noundef i32 @_ZNK3nla6common3varINS_5monicEEEjRKT_(ptr noundef nonnull align 8 dereferenceable(184) %this1, ptr noundef nonnull align 8 dereferenceable(34) %7)
          to label %invoke.cont15 unwind label %lpad

invoke.cont15:                                    ; preds = %invoke.cont13
  %call18 = invoke noundef nonnull align 8 dereferenceable(16) ptr @_ZN3nla9new_lemma31explain_var_separated_from_zeroEj(ptr noundef nonnull align 8 dereferenceable(16) %lemma, i32 noundef %call16)
          to label %invoke.cont17 unwind label %lpad

invoke.cont17:                                    ; preds = %invoke.cont15
  %8 = load ptr, ptr %rm.addr, align 8
  %call20 = invoke noundef nonnull align 8 dereferenceable(16) ptr @_ZN3nla9new_lemmaaNERKNS_5monicE(ptr noundef nonnull align 8 dereferenceable(16) %lemma, ptr noundef nonnull align 8 dereferenceable(34) %8)
          to label %invoke.cont19 unwind label %lpad

invoke.cont19:                                    ; preds = %invoke.cont17
  %9 = load ptr, ptr %f.addr, align 8
  %call22 = invoke noundef nonnull align 8 dereferenceable(16) ptr @_ZN3nla9new_lemmaaNERKNS_13factorizationE(ptr noundef nonnull align 8 dereferenceable(16) %lemma, ptr noundef nonnull align 8 dereferenceable(16) %9)
          to label %invoke.cont21 unwind label %lpad

invoke.cont21:                                    ; preds = %invoke.cont19
  store i1 true, ptr %retval, align 1
  call void @_ZN3nla9new_lemmaD1Ev(ptr noundef nonnull align 8 dereferenceable(16) %lemma) #3
  br label %return

lpad:                                             ; preds = %invoke.cont19, %invoke.cont17, %invoke.cont15, %invoke.cont13, %invoke.cont, %if.end10
  %10 = landingpad { ptr, i32 }
          cleanup
  %11 = extractvalue { ptr, i32 } %10, 0
  store ptr %11, ptr %exn.slot, align 8
  %12 = extractvalue { ptr, i32 } %10, 1
  store i32 %12, ptr %ehselector.slot, align 4
  call void @_ZN3nla9new_lemmaD1Ev(ptr noundef nonnull align 8 dereferenceable(16) %lemma) #3
  br label %eh.resume

for.inc:                                          ; preds = %if.then9
  %13 = load ptr, ptr %__begin1, align 8
  %incdec.ptr = getelementptr inbounds %"class.nla::factor", ptr %13, i32 1
  store ptr %incdec.ptr, ptr %__begin1, align 8
  br label %for.cond

for.end:                                          ; preds = %for.cond
  store i1 false, ptr %retval, align 1
  br label %return

return:                                           ; preds = %for.end, %invoke.cont21, %if.then
  %14 = load i1, ptr %retval, align 1
  ret i1 %14

eh.resume:                                        ; preds = %lpad
  %exn = load ptr, ptr %exn.slot, align 8
  %sel = load i32, ptr %ehselector.slot, align 4
  %lpad.val = insertvalue { ptr, i32 } poison, ptr %exn, 0
  %lpad.val23 = insertvalue { ptr, i32 } %lpad.val, i32 %sel, 1
  resume { ptr, i32 } %lpad.val23
}