; Function Attrs: mustprogress uwtable
define hidden noundef zeroext i1 @_ZN3nla6basics36basic_lemma_for_mon_non_zero_derivedERKNS_5monicERKNS_13factorizationE(ptr noundef nonnull align 8 dereferenceable(184) %this, ptr noundef nonnull align 8 dereferenceable(34) %rm, ptr noundef nonnull align 8 dereferenceable(16) %f) local_unnamed_addr #3 align 2 personality ptr @__gxx_personality_v0 {
entry:
  %fc = alloca %"class.nla::factor", align 4
  %lemma = alloca %"class.nla::new_lemma", align 8
  %0 = load ptr, ptr %this, align 8
  %call2 = tail call noundef i32 @_ZNK3nla6common3varINS_5monicEEEjRKT_(ptr noundef nonnull align 8 dereferenceable(184) %this, ptr noundef nonnull align 8 dereferenceable(34) %rm)
  %call3 = tail call noundef zeroext i1 @_ZNK3nla4core26var_is_separated_from_zeroEj(ptr noundef nonnull align 8 dereferenceable(4720) %0, i32 noundef %call2)
  br i1 %call3, label %if.end, label %return

if.end:                                           ; preds = %entry
  %1 = load ptr, ptr %f, align 8
  %cmp.i.i.i = icmp eq ptr %1, null
  br i1 %cmp.i.i.i, label %return, label %_ZNK3nla13factorization3endEv.exit

_ZNK3nla13factorization3endEv.exit:               ; preds = %if.end
  %arrayidx.i.i.i = getelementptr inbounds i8, ptr %1, i64 -4
  %2 = load i32, ptr %arrayidx.i.i.i, align 4
  %3 = zext i32 %2 to i64
  %add.ptr.i.i = getelementptr inbounds %"class.nla::factor", ptr %1, i64 %3
  %cmp.not7 = icmp eq i32 %2, 0
  br i1 %cmp.not7, label %return, label %for.body

for.cond:                                         ; preds = %for.body
  %incdec.ptr = getelementptr inbounds i8, ptr %__begin1.08, i64 12
  %cmp.not = icmp eq ptr %incdec.ptr, %add.ptr.i.i
  br i1 %cmp.not, label %return, label %for.body

for.body:                                         ; preds = %_ZNK3nla13factorization3endEv.exit, %for.cond
  %__begin1.08 = phi ptr [ %incdec.ptr, %for.cond ], [ %1, %_ZNK3nla13factorization3endEv.exit ]
  call void @llvm.memcpy.p0.p0.i64(ptr noundef nonnull align 4 dereferenceable(12) %fc, ptr noundef nonnull align 4 dereferenceable(12) %__begin1.08, i64 12, i1 false)
  %4 = load ptr, ptr %this, align 8
  %call7 = call noundef i32 @_ZNK3nla6common3varINS_6factorEEEjRKT_(ptr noundef nonnull align 8 dereferenceable(184) %this, ptr noundef nonnull align 4 dereferenceable(9) %fc)
  %call8 = call noundef zeroext i1 @_ZNK3nla4core20var_is_fixed_to_zeroEj(ptr noundef nonnull align 8 dereferenceable(4720) %4, i32 noundef %call7)
  br i1 %call8, label %if.end10, label %for.cond

if.end10:                                         ; preds = %for.body
  %5 = load ptr, ptr %this, align 8
  call void @_ZN3nla9new_lemmaC1ERNS_4coreEPKc(ptr noundef nonnull align 8 dereferenceable(16) %lemma, ptr noundef nonnull align 8 dereferenceable(4720) %5, ptr noundef nonnull @.str.8)
  %call12 = invoke noundef i32 @_ZNK3nla6common3varINS_6factorEEEjRKT_(ptr noundef nonnull align 8 dereferenceable(184) %this, ptr noundef nonnull align 4 dereferenceable(9) %fc)
          to label %invoke.cont unwind label %lpad

invoke.cont:                                      ; preds = %if.end10
  %call14 = invoke noundef nonnull align 8 dereferenceable(16) ptr @_ZN3nla9new_lemma13explain_fixedEj(ptr noundef nonnull align 8 dereferenceable(16) %lemma, i32 noundef %call12)
          to label %invoke.cont13 unwind label %lpad

invoke.cont13:                                    ; preds = %invoke.cont
  %call16 = invoke noundef i32 @_ZNK3nla6common3varINS_5monicEEEjRKT_(ptr noundef nonnull align 8 dereferenceable(184) %this, ptr noundef nonnull align 8 dereferenceable(34) %rm)
          to label %invoke.cont15 unwind label %lpad

invoke.cont15:                                    ; preds = %invoke.cont13
  %call18 = invoke noundef nonnull align 8 dereferenceable(16) ptr @_ZN3nla9new_lemma31explain_var_separated_from_zeroEj(ptr noundef nonnull align 8 dereferenceable(16) %lemma, i32 noundef %call16)
          to label %invoke.cont17 unwind label %lpad

invoke.cont17:                                    ; preds = %invoke.cont15
  %call20 = invoke noundef nonnull align 8 dereferenceable(16) ptr @_ZN3nla9new_lemmaaNERKNS_5monicE(ptr noundef nonnull align 8 dereferenceable(16) %lemma, ptr noundef nonnull align 8 dereferenceable(34) %rm)
          to label %invoke.cont19 unwind label %lpad

invoke.cont19:                                    ; preds = %invoke.cont17
  %call22 = invoke noundef nonnull align 8 dereferenceable(16) ptr @_ZN3nla9new_lemmaaNERKNS_13factorizationE(ptr noundef nonnull align 8 dereferenceable(16) %lemma, ptr noundef nonnull align 8 dereferenceable(16) %f)
          to label %invoke.cont21 unwind label %lpad

invoke.cont21:                                    ; preds = %invoke.cont19
  call void @_ZN3nla9new_lemmaD1Ev(ptr noundef nonnull align 8 dereferenceable(16) %lemma) #17
  br label %return

lpad:                                             ; preds = %invoke.cont19, %invoke.cont17, %invoke.cont15, %invoke.cont13, %invoke.cont, %if.end10
  %6 = landingpad { ptr, i32 }
          cleanup
  call void @_ZN3nla9new_lemmaD1Ev(ptr noundef nonnull align 8 dereferenceable(16) %lemma) #17
  resume { ptr, i32 } %6

return:                                           ; preds = %for.cond, %if.end, %_ZNK3nla13factorization3endEv.exit, %entry, %invoke.cont21
  %retval.0 = phi i1 [ true, %invoke.cont21 ], [ false, %entry ], [ false, %_ZNK3nla13factorization3endEv.exit ], [ false, %if.end ], [ false, %for.cond ]
  ret i1 %retval.0
}